target datalayout = "e-m:e-p270:32:32-p271:32:32-p272:64:64-i64:64-i128:128-f80:128-n8:16:32:64-S128"
target triple = "x86_64-pc-linux-gnu"

%"class.std::basic_string_view" = type { i64, ptr }
%"class.absl::lts_20240722::Status" = type { i64 }

; Function Attrs: mustprogress uwtable
define internal void @_ZL22AresStatusToAbslStatusiSt17basic_string_viewIcSt11char_traitsIcEE(ptr dead_on_unwind noalias writable sret(%"class.absl::lts_20240722::Status") align 8 %0, i32 noundef %1, i64 %2, ptr %3) #4 {
  %5 = alloca ptr, align 8
  %6 = alloca %"class.std::basic_string_view", align 8
  %7 = alloca i32, align 4
  %8 = alloca %"class.std::basic_string_view", align 8
  %9 = alloca %"class.std::basic_string_view", align 8
  %10 = alloca %"class.std::basic_string_view", align 8
  %11 = alloca %"class.std::basic_string_view", align 8
  %12 = alloca %"class.std::basic_string_view", align 8
  store ptr %0, ptr %5, align 8
  %13 = getelementptr inbounds nuw { i64, ptr }, ptr %6, i32 0, i32 0
  store i64 %2, ptr %13, align 8
  %14 = getelementptr inbounds nuw { i64, ptr }, ptr %6, i32 0, i32 1
  store ptr %3, ptr %14, align 8
  store i32 %1, ptr %7, align 4, !tbaa !29
  %15 = load i32, ptr %7, align 4, !tbaa !29
  switch i32 %15, label %36 [
    i32 24, label %16
    i32 5, label %21
    i32 4, label %26
    i32 11, label %31
  ]

16:                                               ; preds = %4
  call void @llvm.memcpy.p0.p0.i64(ptr align 8 %8, ptr align 8 %6, i64 16, i1 false), !tbaa.struct !132
  %17 = getelementptr inbounds nuw { i64, ptr }, ptr %8, i32 0, i32 0
  %18 = load i64, ptr %17, align 8
  %19 = getelementptr inbounds nuw { i64, ptr }, ptr %8, i32 0, i32 1
  %20 = load ptr, ptr %19, align 8
  call void @_ZN4absl12lts_2024072214CancelledErrorESt17basic_string_viewIcSt11char_traitsIcEE(ptr dead_on_unwind writable sret(%"class.absl::lts_20240722::Status") align 8 %0, i64 %18, ptr %20)
  br label %41

21:                                               ; preds = %4
  call void @llvm.memcpy.p0.p0.i64(ptr align 8 %9, ptr align 8 %6, i64 16, i1 false), !tbaa.struct !132
  %22 = getelementptr inbounds nuw { i64, ptr }, ptr %9, i32 0, i32 0
  %23 = load i64, ptr %22, align 8
  %24 = getelementptr inbounds nuw { i64, ptr }, ptr %9, i32 0, i32 1
  %25 = load ptr, ptr %24, align 8
  call void @_ZN4absl12lts_2024072218UnimplementedErrorESt17basic_string_viewIcSt11char_traitsIcEE(ptr dead_on_unwind writable sret(%"class.absl::lts_20240722::Status") align 8 %0, i64 %23, ptr %25)
  br label %41

26:                                               ; preds = %4
  call void @llvm.memcpy.p0.p0.i64(ptr align 8 %10, ptr align 8 %6, i64 16, i1 false), !tbaa.struct !132
  %27 = getelementptr inbounds nuw { i64, ptr }, ptr %10, i32 0, i32 0
  %28 = load i64, ptr %27, align 8
  %29 = getelementptr inbounds nuw { i64, ptr }, ptr %10, i32 0, i32 1
  %30 = load ptr, ptr %29, align 8
  call void @_ZN4absl12lts_2024072213NotFoundErrorESt17basic_string_viewIcSt11char_traitsIcEE(ptr dead_on_unwind writable sret(%"class.absl::lts_20240722::Status") align 8 %0, i64 %28, ptr %30)
  br label %41

31:                                               ; preds = %4
  call void @llvm.memcpy.p0.p0.i64(ptr align 8 %11, ptr align 8 %6, i64 16, i1 false), !tbaa.struct !132
  %32 = getelementptr inbounds nuw { i64, ptr }, ptr %11, i32 0, i32 0
  %33 = load i64, ptr %32, align 8
  %34 = getelementptr inbounds nuw { i64, ptr }, ptr %11, i32 0, i32 1
  %35 = load ptr, ptr %34, align 8
  call void @_ZN4absl12lts_2024072216UnavailableErrorESt17basic_string_viewIcSt11char_traitsIcEE(ptr dead_on_unwind writable sret(%"class.absl::lts_20240722::Status") align 8 %0, i64 %33, ptr %35)
  br label %41

36:                                               ; preds = %4
  call void @llvm.memcpy.p0.p0.i64(ptr align 8 %12, ptr align 8 %6, i64 16, i1 false), !tbaa.struct !132
  %37 = getelementptr inbounds nuw { i64, ptr }, ptr %12, i32 0, i32 0
  %38 = load i64, ptr %37, align 8
  %39 = getelementptr inbounds nuw { i64, ptr }, ptr %12, i32 0, i32 1
  %40 = load ptr, ptr %39, align 8
  call void @_ZN4absl12lts_2024072212UnknownErrorESt17basic_string_viewIcSt11char_traitsIcEE(ptr dead_on_unwind writable sret(%"class.absl::lts_20240722::Status") align 8 %0, i64 %38, ptr %40)
  br label %41

41:                                               ; preds = %36, %31, %26, %21, %16
  ret void
}